; ModuleID = '35/99.c'
source_filename = "35/99.c"
target datalayout = "e-m:e-p270:32:32-p271:32:32-p272:64:64-i64:64-f80:128-n8:16:32:64-S128"
target triple = "x86_64-pc-linux-gnu"

@.str = private unnamed_addr constant [6 x i8] c"%d,%d\00", align 1
@.str.1 = private unnamed_addr constant [3 x i8] c"%d\00", align 1
@.str.2 = private unnamed_addr constant [6 x i8] c"%d+%d\00", align 1
@.str.3 = private unnamed_addr constant [3 x i8] c"No\00", align 1

; Function Attrs: noinline nounwind uwtable
define dso_local void @main() #0 {
  %1 = alloca i32, align 4
  %2 = alloca i32, align 4
  %3 = alloca i32, align 4
  %4 = alloca i32, align 4
  %5 = alloca i32, align 4
  %6 = alloca i32, align 4
  %7 = alloca i32, align 4
  %8 = alloca i32, align 4
  %9 = alloca [8 x [8 x i32]], align 16
  store i32 1, i32* %5, align 4
  store i32 0, i32* %8, align 4
  %10 = call i32 (i8*, ...) @__isoc99_scanf(i8* getelementptr inbounds ([6 x i8], [6 x i8]* @.str, i64 0, i64 0), i32* %6, i32* %7)
  store i32 0, i32* %1, align 4
  br label %11

11:                                               ; preds = %32, %0
  %12 = load i32, i32* %1, align 4
  %13 = load i32, i32* %6, align 4
  %14 = icmp slt i32 %12, %13
  br i1 %14, label %15, label %35

15:                                               ; preds = %11
  store i32 0, i32* %2, align 4
  br label %16

16:                                               ; preds = %28, %15
  %17 = load i32, i32* %2, align 4
  %18 = load i32, i32* %7, align 4
  %19 = icmp slt i32 %17, %18
  br i1 %19, label %20, label %31

20:                                               ; preds = %16
  %21 = load i32, i32* %1, align 4
  %22 = sext i32 %21 to i64
  %23 = getelementptr inbounds [8 x [8 x i32]], [8 x [8 x i32]]* %9, i64 0, i64 %22
  %24 = load i32, i32* %2, align 4
  %25 = sext i32 %24 to i64
  %26 = getelementptr inbounds [8 x i32], [8 x i32]* %23, i64 0, i64 %25
  %27 = call i32 (i8*, ...) @__isoc99_scanf(i8* getelementptr inbounds ([3 x i8], [3 x i8]* @.str.1, i64 0, i64 0), i32* %26)
  br label %28

28:                                               ; preds = %20
  %29 = load i32, i32* %2, align 4
  %30 = add nsw i32 %29, 1
  store i32 %30, i32* %2, align 4
  br label %16

31:                                               ; preds = %16
  br label %32

32:                                               ; preds = %31
  %33 = load i32, i32* %1, align 4
  %34 = add nsw i32 %33, 1
  store i32 %34, i32* %1, align 4
  br label %11

35:                                               ; preds = %11
  store i32 0, i32* %1, align 4
  br label %36

36:                                               ; preds = %127, %35
  %37 = load i32, i32* %1, align 4
  %38 = load i32, i32* %6, align 4
  %39 = icmp slt i32 %37, %38
  br i1 %39, label %40, label %130

40:                                               ; preds = %36
  store i32 0, i32* %2, align 4
  br label %41

41:                                               ; preds = %123, %40
  %42 = load i32, i32* %2, align 4
  %43 = load i32, i32* %7, align 4
  %44 = icmp slt i32 %42, %43
  br i1 %44, label %45, label %126

45:                                               ; preds = %41
  store i32 1, i32* %5, align 4
  store i32 0, i32* %3, align 4
  br label %46

46:                                               ; preds = %77, %45
  %47 = load i32, i32* %3, align 4
  %48 = load i32, i32* %6, align 4
  %49 = icmp slt i32 %47, %48
  br i1 %49, label %50, label %80

50:                                               ; preds = %46
  %51 = load i32, i32* %1, align 4
  %52 = load i32, i32* %3, align 4
  %53 = icmp eq i32 %51, %52
  br i1 %53, label %54, label %55

54:                                               ; preds = %50
  br label %77

55:                                               ; preds = %50
  %56 = load i32, i32* %3, align 4
  %57 = sext i32 %56 to i64
  %58 = getelementptr inbounds [8 x [8 x i32]], [8 x [8 x i32]]* %9, i64 0, i64 %57
  %59 = load i32, i32* %2, align 4
  %60 = sext i32 %59 to i64
  %61 = getelementptr inbounds [8 x i32], [8 x i32]* %58, i64 0, i64 %60
  %62 = load i32, i32* %61, align 4
  %63 = load i32, i32* %1, align 4
  %64 = sext i32 %63 to i64
  %65 = getelementptr inbounds [8 x [8 x i32]], [8 x [8 x i32]]* %9, i64 0, i64 %64
  %66 = load i32, i32* %2, align 4
  %67 = sext i32 %66 to i64
  %68 = getelementptr inbounds [8 x i32], [8 x i32]* %65, i64 0, i64 %67
  %69 = load i32, i32* %68, align 4
  %70 = icmp slt i32 %62, %69
  br i1 %70, label %71, label %72

71:                                               ; preds = %55
  store i32 0, i32* %5, align 4
  br label %72

72:                                               ; preds = %71, %55
  %73 = load i32, i32* %5, align 4
  %74 = icmp eq i32 %73, 0
  br i1 %74, label %75, label %76

75:                                               ; preds = %72
  br label %80

76:                                               ; preds = %72
  br label %77

77:                                               ; preds = %76, %54
  %78 = load i32, i32* %3, align 4
  %79 = add nsw i32 %78, 1
  store i32 %79, i32* %3, align 4
  br label %46

80:                                               ; preds = %75, %46
  store i32 0, i32* %4, align 4
  br label %81

81:                                               ; preds = %112, %80
  %82 = load i32, i32* %4, align 4
  %83 = load i32, i32* %7, align 4
  %84 = icmp slt i32 %82, %83
  br i1 %84, label %85, label %115

85:                                               ; preds = %81
  %86 = load i32, i32* %2, align 4
  %87 = load i32, i32* %4, align 4
  %88 = icmp eq i32 %86, %87
  br i1 %88, label %89, label %90

89:                                               ; preds = %85
  br label %112

90:                                               ; preds = %85
  %91 = load i32, i32* %1, align 4
  %92 = sext i32 %91 to i64
  %93 = getelementptr inbounds [8 x [8 x i32]], [8 x [8 x i32]]* %9, i64 0, i64 %92
  %94 = load i32, i32* %4, align 4
  %95 = sext i32 %94 to i64
  %96 = getelementptr inbounds [8 x i32], [8 x i32]* %93, i64 0, i64 %95
  %97 = load i32, i32* %96, align 4
  %98 = load i32, i32* %1, align 4
  %99 = sext i32 %98 to i64
  %100 = getelementptr inbounds [8 x [8 x i32]], [8 x [8 x i32]]* %9, i64 0, i64 %99
  %101 = load i32, i32* %2, align 4
  %102 = sext i32 %101 to i64
  %103 = getelementptr inbounds [8 x i32], [8 x i32]* %100, i64 0, i64 %102
  %104 = load i32, i32* %103, align 4
  %105 = icmp sgt i32 %97, %104
  br i1 %105, label %106, label %107

106:                                              ; preds = %90
  store i32 0, i32* %5, align 4
  br label %107

107:                                              ; preds = %106, %90
  %108 = load i32, i32* %5, align 4
  %109 = icmp eq i32 %108, 0
  br i1 %109, label %110, label %111

110:                                              ; preds = %107
  br label %115

111:                                              ; preds = %107
  br label %112

112:                                              ; preds = %111, %89
  %113 = load i32, i32* %4, align 4
  %114 = add nsw i32 %113, 1
  store i32 %114, i32* %4, align 4
  br label %81

115:                                              ; preds = %110, %81
  %116 = load i32, i32* %5, align 4
  %117 = icmp eq i32 %116, 1
  br i1 %117, label %118, label %122

118:                                              ; preds = %115
  %119 = load i32, i32* %1, align 4
  %120 = load i32, i32* %2, align 4
  %121 = call i32 (i8*, ...) @printf(i8* getelementptr inbounds ([6 x i8], [6 x i8]* @.str.2, i64 0, i64 0), i32 %119, i32 %120)
  store i32 1, i32* %8, align 4
  br label %122

122:                                              ; preds = %118, %115
  br label %123

123:                                              ; preds = %122
  %124 = load i32, i32* %2, align 4
  %125 = add nsw i32 %124, 1
  store i32 %125, i32* %2, align 4
  br label %41

126:                                              ; preds = %41
  br label %127

127:                                              ; preds = %126
  %128 = load i32, i32* %1, align 4
  %129 = add nsw i32 %128, 1
  store i32 %129, i32* %1, align 4
  br label %36

130:                                              ; preds = %36
  %131 = load i32, i32* %8, align 4
  %132 = icmp eq i32 %131, 0
  br i1 %132, label %133, label %135

133:                                              ; preds = %130
  %134 = call i32 (i8*, ...) @printf(i8* getelementptr inbounds ([3 x i8], [3 x i8]* @.str.3, i64 0, i64 0))
  br label %135

135:                                              ; preds = %133, %130
  ret void
}

declare dso_local i32 @__isoc99_scanf(i8*, ...) #1

declare dso_local i32 @printf(i8*, ...) #1


!llvm.module.flags = !{!0}
!llvm.ident = !{!1}

!0 = !{i32 1, !"wchar_size", i32 4}
!1 = !{!"clang version 10.0.0-4ubuntu1 "}
